; ModuleID = '29/201.c'
source_filename = "29/201.c"
target datalayout = "e-m:e-p270:32:32-p271:32:32-p272:64:64-i64:64-f80:128-n8:16:32:64-S128"
target triple = "x86_64-pc-linux-gnu"

@.str = private unnamed_addr constant [3 x i8] c"%d\00", align 1
@.str.1 = private unnamed_addr constant [7 x i8] c"%.3lf\0A\00", align 1

; Function Attrs: noinline nounwind uwtable
define dso_local i32 @main() #0 {
  %1 = alloca i32, align 4
  %2 = alloca i32, align 4
  %3 = alloca i32, align 4
  %4 = alloca i32, align 4
  %5 = alloca i32, align 4
  %6 = alloca double, align 8
  %7 = alloca double, align 8
  %8 = alloca double, align 8
  %9 = alloca double, align 8
  %10 = alloca double, align 8
  %11 = alloca double, align 8
  %12 = alloca double, align 8
  store i32 0, i32* %1, align 4
  store double 0.000000e+00, double* %6, align 8
  %13 = call i32 (i8*, ...) @__isoc99_scanf(i8* getelementptr inbounds ([3 x i8], [3 x i8]* @.str, i64 0, i64 0), i32* %2)
  store i32 0, i32* %4, align 4
  br label %14

14:                                               ; preds = %52, %0
  %15 = load i32, i32* %4, align 4
  %16 = load i32, i32* %2, align 4
  %17 = icmp slt i32 %15, %16
  br i1 %17, label %18, label %55

18:                                               ; preds = %14
  store double 0.000000e+00, double* %6, align 8
  %19 = call i32 (i8*, ...) @__isoc99_scanf(i8* getelementptr inbounds ([3 x i8], [3 x i8]* @.str, i64 0, i64 0), i32* %3)
  store double 1.000000e+00, double* %7, align 8
  store double 2.000000e+00, double* %8, align 8
  store double 2.000000e+00, double* %9, align 8
  store double 3.000000e+00, double* %10, align 8
  %20 = load double, double* %6, align 8
  %21 = load double, double* %8, align 8
  %22 = load double, double* %7, align 8
  %23 = fdiv double %21, %22
  %24 = fadd double %20, %23
  store double %24, double* %6, align 8
  store i32 0, i32* %5, align 4
  br label %25

25:                                               ; preds = %46, %18
  %26 = load i32, i32* %5, align 4
  %27 = load i32, i32* %3, align 4
  %28 = sub nsw i32 %27, 1
  %29 = icmp slt i32 %26, %28
  br i1 %29, label %30, label %49

30:                                               ; preds = %25
  %31 = load double, double* %6, align 8
  %32 = load double, double* %10, align 8
  %33 = load double, double* %9, align 8
  %34 = fdiv double %32, %33
  %35 = fadd double %31, %34
  store double %35, double* %6, align 8
  %36 = load double, double* %10, align 8
  store double %36, double* %12, align 8
  %37 = load double, double* %10, align 8
  %38 = load double, double* %8, align 8
  %39 = fadd double %37, %38
  store double %39, double* %10, align 8
  %40 = load double, double* %12, align 8
  store double %40, double* %8, align 8
  %41 = load double, double* %9, align 8
  store double %41, double* %11, align 8
  %42 = load double, double* %9, align 8
  %43 = load double, double* %7, align 8
  %44 = fadd double %42, %43
  store double %44, double* %9, align 8
  %45 = load double, double* %11, align 8
  store double %45, double* %7, align 8
  br label %46

46:                                               ; preds = %30
  %47 = load i32, i32* %5, align 4
  %48 = add nsw i32 %47, 1
  store i32 %48, i32* %5, align 4
  br label %25

49:                                               ; preds = %25
  %50 = load double, double* %6, align 8
  %51 = call i32 (i8*, ...) @printf(i8* getelementptr inbounds ([7 x i8], [7 x i8]* @.str.1, i64 0, i64 0), double %50)
  br label %52

52:                                               ; preds = %49
  %53 = load i32, i32* %4, align 4
  %54 = add nsw i32 %53, 1
  store i32 %54, i32* %4, align 4
  br label %14

55:                                               ; preds = %14
  ret i32 0
}

declare dso_local i32 @__isoc99_scanf(i8*, ...) #1

declare dso_local i32 @printf(i8*, ...) #1


!llvm.module.flags = !{!0}
!llvm.ident = !{!1}

!0 = !{i32 1, !"wchar_size", i32 4}
!1 = !{!"clang version 10.0.0-4ubuntu1 "}
